target datalayout = "e-m:e-p270:32:32-p271:32:32-p272:64:64-i64:64-i128:128-f80:128-n8:16:32:64-S128"
target triple = "x86_64-pc-linux-gnu"

%struct._archiveHandle = type { %struct.Archive, i32, ptr, ptr, i64, i64, i32, %struct.sqlparseInfo, i64, i32, ptr, i64, i64, i64, ptr, ptr, ptr, ptr, ptr, ptr, ptr, ptr, ptr, ptr, ptr, ptr, ptr, ptr, ptr, ptr, ptr, ptr, ptr, ptr, ptr, ptr, ptr, ptr, ptr, ptr, ptr, ptr, ptr, ptr, i32, i32, i8, i32, i8, i32, ptr, ptr, ptr, ptr, i32, i32, ptr, ptr, ptr, %struct.pg_compress_specification, i8, i32, i32, ptr, ptr, ptr, ptr, ptr, i32, ptr, i64, i64, i32, i32, i32, i32, ptr, ptr }
%struct.Archive = type { ptr, ptr, i32, ptr, i32, i8, i32, i32, i32, ptr, i32, i8, ptr, ptr, i8, i32, ptr }
%struct.sqlparseInfo = type { i32, i8, ptr }
%struct.pg_compress_specification = type { i32, i32, i32, i32, i8, ptr }
%struct.lclContext = type { i32, i64, ptr, ptr, i64, i64, ptr, i32, ptr }
%struct.TAR_MEMBER = type { ptr, ptr, ptr, ptr, i8, i64, i64, ptr }

@__pg_log_level = external global i32, align 4
@.str.24 = private unnamed_addr constant [39 x i8] c"incomplete tar header found (%lu byte)\00", align 1
@.str.25 = private unnamed_addr constant [40 x i8] c"incomplete tar header found (%lu bytes)\00", align 1
@.str.26 = private unnamed_addr constant [48 x i8] c"TOC Entry %s at %llu (length %llu, checksum %d)\00", align 1
@.str.27 = private unnamed_addr constant [77 x i8] c"corrupt tar header found in %s (expected %d, computed %d) file position %llu\00", align 1

; Function Attrs: nounwind uwtable
define internal i32 @_tarGetHeader(ptr noundef %0, ptr noundef %1) #0 {
  %3 = alloca i32, align 4
  %4 = alloca ptr, align 8
  %5 = alloca ptr, align 8
  %6 = alloca ptr, align 8
  %7 = alloca [512 x i8], align 16
  %8 = alloca [101 x i8], align 16
  %9 = alloca i32, align 4
  %10 = alloca i32, align 4
  %11 = alloca i64, align 8
  %12 = alloca i64, align 8
  %13 = alloca i8, align 1
  %14 = alloca i32, align 4
  %15 = alloca i32, align 4
  store ptr %0, ptr %4, align 8
  store ptr %1, ptr %5, align 8
  call void @llvm.lifetime.start.p0(i64 8, ptr %6) #12
  %16 = load ptr, ptr %4, align 8
  %17 = getelementptr inbounds nuw %struct._archiveHandle, ptr %16, i32 0, i32 63
  %18 = load ptr, ptr %17, align 8
  store ptr %18, ptr %6, align 8
  call void @llvm.lifetime.start.p0(i64 512, ptr %7) #12
  call void @llvm.lifetime.start.p0(i64 101, ptr %8) #12
  call void @llvm.lifetime.start.p0(i64 4, ptr %9) #12
  call void @llvm.lifetime.start.p0(i64 4, ptr %10) #12
  call void @llvm.lifetime.start.p0(i64 8, ptr %11) #12
  call void @llvm.lifetime.start.p0(i64 8, ptr %12) #12
  call void @llvm.lifetime.start.p0(i64 1, ptr %13) #12
  store i8 0, ptr %13, align 1
  br label %19

19:                                               ; preds = %74, %2
  %20 = load i8, ptr %13, align 1, !range !6, !noundef !7
  %21 = trunc i8 %20 to i1
  %22 = xor i1 %21, true
  br i1 %22, label %23, label %75

23:                                               ; preds = %19
  %24 = load ptr, ptr %6, align 8
  %25 = getelementptr inbounds nuw %struct.lclContext, ptr %24, i32 0, i32 4
  %26 = load i64, ptr %25, align 8
  store i64 %26, ptr %12, align 8
  %27 = load ptr, ptr %4, align 8
  %28 = getelementptr inbounds [512 x i8], ptr %7, i64 0, i64 0
  %29 = load ptr, ptr %6, align 8
  %30 = getelementptr inbounds nuw %struct.lclContext, ptr %29, i32 0, i32 3
  %31 = load ptr, ptr %30, align 8
  %32 = call i64 @_tarReadRaw(ptr noundef %27, ptr noundef %28, i64 noundef 512, ptr noundef null, ptr noundef %31)
  store i64 %32, ptr %11, align 8
  %33 = load i64, ptr %11, align 8
  %34 = icmp eq i64 %33, 0
  br i1 %34, label %35, label %36

35:                                               ; preds = %23
  store i32 0, ptr %3, align 4
  store i32 1, ptr %14, align 4
  br label %120

36:                                               ; preds = %23
  %37 = load i64, ptr %11, align 8
  %38 = icmp ne i64 %37, 512
  br i1 %38, label %39, label %47

39:                                               ; preds = %36
  br label %40

40:                                               ; preds = %39
  %41 = load i64, ptr %11, align 8
  %42 = icmp eq i64 %41, 1
  %43 = select i1 %42, ptr @.str.24, ptr @.str.25
  %44 = load i64, ptr %11, align 8
  call void (i32, i32, ptr, ...) @pg_log_generic(i32 noundef 4, i32 noundef 0, ptr noundef %43, i64 noundef %44)
  call void @exit_nicely(i32 noundef 1) #14
  unreachable

45:                                               ; No predecessors!
  br label %46

46:                                               ; preds = %45
  br label %47

47:                                               ; preds = %46, %36
  %48 = getelementptr inbounds [512 x i8], ptr %7, i64 0, i64 0
  %49 = call i32 @tarChecksum(ptr noundef %48)
  store i32 %49, ptr %10, align 4
  %50 = getelementptr inbounds [512 x i8], ptr %7, i64 0, i64 148
  %51 = call i64 @read_tar_number(ptr noundef %50, i32 noundef 8)
  %52 = trunc i64 %51 to i32
  store i32 %52, ptr %9, align 4
  %53 = load i32, ptr %10, align 4
  %54 = load i32, ptr %9, align 4
  %55 = icmp eq i32 %53, %54
  br i1 %55, label %56, label %57

56:                                               ; preds = %47
  store i8 1, ptr %13, align 1
  br label %74

57:                                               ; preds = %47
  call void @llvm.lifetime.start.p0(i64 4, ptr %15) #12
  store i32 0, ptr %15, align 4
  br label %58

58:                                               ; preds = %70, %57
  %59 = load i32, ptr %15, align 4
  %60 = icmp slt i32 %59, 512
  br i1 %60, label %61, label %73

61:                                               ; preds = %58
  %62 = load i32, ptr %15, align 4
  %63 = sext i32 %62 to i64
  %64 = getelementptr inbounds [512 x i8], ptr %7, i64 0, i64 %63
  %65 = load i8, ptr %64, align 1
  %66 = sext i8 %65 to i32
  %67 = icmp ne i32 %66, 0
  br i1 %67, label %68, label %69

68:                                               ; preds = %61
  store i8 1, ptr %13, align 1
  br label %73

69:                                               ; preds = %61
  br label %70

70:                                               ; preds = %69
  %71 = load i32, ptr %15, align 4
  %72 = add i32 %71, 1
  store i32 %72, ptr %15, align 4
  br label %58, !llvm.loop !11

73:                                               ; preds = %68, %58
  call void @llvm.lifetime.end.p0(i64 4, ptr %15) #12
  br label %74

74:                                               ; preds = %73, %56
  br label %19, !llvm.loop !12

75:                                               ; preds = %19
  %76 = getelementptr inbounds [101 x i8], ptr %8, i64 0, i64 0
  %77 = getelementptr inbounds [512 x i8], ptr %7, i64 0, i64 0
  %78 = call i64 @strlcpy(ptr noundef %76, ptr noundef %77, i64 noundef 101)
  %79 = getelementptr inbounds [512 x i8], ptr %7, i64 0, i64 124
  %80 = call i64 @read_tar_number(ptr noundef %79, i32 noundef 12)
  store i64 %80, ptr %11, align 8
  br label %81

81:                                               ; preds = %75
  %82 = load i32, ptr @__pg_log_level, align 4
  %83 = icmp ule i32 %82, 1
  %84 = zext i1 %83 to i32
  %85 = icmp ne i32 %84, 0
  %86 = zext i1 %85 to i32
  %87 = sext i32 %86 to i64
  %88 = call i64 @llvm.expect.i64(i64 %87, i64 0)
  %89 = icmp ne i64 %88, 0
  br i1 %89, label %90, label %95

90:                                               ; preds = %81
  %91 = getelementptr inbounds [101 x i8], ptr %8, i64 0, i64 0
  %92 = load i64, ptr %12, align 8
  %93 = load i64, ptr %11, align 8
  %94 = load i32, ptr %9, align 4
  call void (i32, i32, ptr, ...) @pg_log_generic(i32 noundef 1, i32 noundef 0, ptr noundef @.str.26, ptr noundef %91, i64 noundef %92, i64 noundef %93, i32 noundef %94)
  br label %95

95:                                               ; preds = %90, %81
  br label %96

96:                                               ; preds = %95
  br label %97

97:                                               ; preds = %96
  %98 = load i32, ptr %10, align 4
  %99 = load i32, ptr %9, align 4
  %100 = icmp ne i32 %98, %99
  br i1 %100, label %101, label %112

101:                                              ; preds = %97
  br label %102

102:                                              ; preds = %101
  %103 = getelementptr inbounds [101 x i8], ptr %8, i64 0, i64 0
  %104 = load i32, ptr %9, align 4
  %105 = load i32, ptr %10, align 4
  %106 = load ptr, ptr %6, align 8
  %107 = getelementptr inbounds nuw %struct.lclContext, ptr %106, i32 0, i32 3
  %108 = load ptr, ptr %107, align 8
  %109 = call i64 @ftello(ptr noundef %108)
  call void (i32, i32, ptr, ...) @pg_log_generic(i32 noundef 4, i32 noundef 0, ptr noundef @.str.27, ptr noundef %103, i32 noundef %104, i32 noundef %105, i64 noundef %109)
  call void @exit_nicely(i32 noundef 1) #14
  unreachable

110:                                              ; No predecessors!
  br label %111

111:                                              ; preds = %110
  br label %112

112:                                              ; preds = %111, %97
  %113 = getelementptr inbounds [101 x i8], ptr %8, i64 0, i64 0
  %114 = call ptr @pg_strdup(ptr noundef %113)
  %115 = load ptr, ptr %5, align 8
  %116 = getelementptr inbounds nuw %struct.TAR_MEMBER, ptr %115, i32 0, i32 3
  store ptr %114, ptr %116, align 8
  %117 = load i64, ptr %11, align 8
  %118 = load ptr, ptr %5, align 8
  %119 = getelementptr inbounds nuw %struct.TAR_MEMBER, ptr %118, i32 0, i32 6
  store i64 %117, ptr %119, align 8
  store i32 1, ptr %3, align 4
  store i32 1, ptr %14, align 4
  br label %120

120:                                              ; preds = %112, %35
  call void @llvm.lifetime.end.p0(i64 1, ptr %13) #12
  call void @llvm.lifetime.end.p0(i64 8, ptr %12) #12
  call void @llvm.lifetime.end.p0(i64 8, ptr %11) #12
  call void @llvm.lifetime.end.p0(i64 4, ptr %10) #12
  call void @llvm.lifetime.end.p0(i64 4, ptr %9) #12
  call void @llvm.lifetime.end.p0(i64 101, ptr %8) #12
  call void @llvm.lifetime.end.p0(i64 512, ptr %7) #12
  call void @llvm.lifetime.end.p0(i64 8, ptr %6) #12
  %121 = load i32, ptr %3, align 4
  ret i32 %121
}