; Function Attrs: nounwind uwtable
define internal fastcc range(i32 0, 2) i32 @_tarGetHeader(ptr noundef captures(none) %0, ptr noundef writeonly captures(none) %1) unnamed_addr #0 {
  %3 = alloca [512 x i8], align 16
  %4 = alloca [101 x i8], align 16
  %5 = getelementptr inbounds nuw i8, ptr %0, i64 592
  %6 = load ptr, ptr %5, align 8
  call void @llvm.lifetime.start.p0(i64 512, ptr nonnull %3) #17
  call void @llvm.lifetime.start.p0(i64 101, ptr nonnull %4) #17
  %7 = getelementptr inbounds nuw i8, ptr %6, i64 32
  %8 = getelementptr inbounds nuw i8, ptr %6, i64 24
  %9 = getelementptr inbounds nuw i8, ptr %3, i64 148
  br label %.loopexit

.loopexit.loopexit:                               ; preds = %21
  br label %.loopexit, !llvm.loop !17

.loopexit:                                        ; preds = %.loopexit.loopexit, %2
  %10 = load i64, ptr %7, align 8
  %11 = load ptr, ptr %8, align 8
  %12 = call fastcc i64 @_tarReadRaw(ptr noundef %0, ptr noundef nonnull %3, i64 noundef 512, ptr noundef null, ptr noundef %11)
  switch i64 %12, label %13 [
    i64 0, label %.loopexit33
    i64 512, label %16
  ]

13:                                               ; preds = %.loopexit
  %14 = icmp eq i64 %12, 1
  %15 = select i1 %14, ptr @.str.24, ptr @.str.25
  call void (i32, i32, ptr, ...) @pg_log_generic(i32 noundef 4, i32 noundef 0, ptr noundef nonnull %15, i64 noundef %12) #17
  call void @exit_nicely(i32 noundef 1) #18
  unreachable

16:                                               ; preds = %.loopexit
  %17 = call i32 @tarChecksum(ptr noundef nonnull %3) #17
  %18 = call i64 @read_tar_number(ptr noundef nonnull %9, i32 noundef 8) #17
  %19 = trunc i64 %18 to i32
  %20 = icmp eq i32 %17, %19
  br i1 %20, label %.loopexit52, label %.preheader

21:                                               ; preds = %.preheader
  %indvars.iv.next = add nuw nsw i64 %indvars.iv, 1
  %exitcond.not = icmp eq i64 %indvars.iv.next, 512
  br i1 %exitcond.not, label %.loopexit.loopexit, label %.preheader, !llvm.loop !17

.preheader:                                       ; preds = %16, %21
  %indvars.iv = phi i64 [ %indvars.iv.next, %21 ], [ 0, %16 ]
  %22 = getelementptr inbounds nuw [512 x i8], ptr %3, i64 0, i64 %indvars.iv
  %23 = load i8, ptr %22, align 1
  %.not32.not = icmp eq i8 %23, 0
  br i1 %.not32.not, label %21, label %.loopexit52

.loopexit52:                                      ; preds = %16, %.preheader
  %24 = call i64 @strlcpy(ptr noundef nonnull dereferenceable(1) %4, ptr noundef nonnull dereferenceable(1) %3, i64 noundef 101) #17
  %25 = getelementptr inbounds nuw i8, ptr %3, i64 124
  %26 = call i64 @read_tar_number(ptr noundef nonnull %25, i32 noundef 12) #17
  %27 = load i32, ptr @__pg_log_level, align 4
  %28 = icmp ult i32 %27, 2
  br i1 %28, label %29, label %30, !prof !11

29:                                               ; preds = %.loopexit52
  call void (i32, i32, ptr, ...) @pg_log_generic(i32 noundef 1, i32 noundef 0, ptr noundef nonnull @.str.26, ptr noundef nonnull %4, i64 noundef %10, i64 noundef %26, i32 noundef %19) #17
  br label %30

30:                                               ; preds = %29, %.loopexit52
  br i1 %20, label %34, label %31

31:                                               ; preds = %30
  %32 = load ptr, ptr %8, align 8
  %33 = call i64 @ftello(ptr noundef %32)
  call void (i32, i32, ptr, ...) @pg_log_generic(i32 noundef 4, i32 noundef 0, ptr noundef nonnull @.str.27, ptr noundef nonnull %4, i32 noundef %19, i32 noundef %17, i64 noundef %33) #17
  call void @exit_nicely(i32 noundef 1) #18
  unreachable

34:                                               ; preds = %30
  %35 = call ptr @pg_strdup(ptr noundef nonnull %4) #17
  %36 = getelementptr inbounds nuw i8, ptr %1, i64 24
  store ptr %35, ptr %36, align 8
  %37 = getelementptr inbounds nuw i8, ptr %1, i64 48
  store i64 %26, ptr %37, align 8
  br label %.loopexit33

.loopexit33:                                      ; preds = %.loopexit, %34
  %.029 = phi i32 [ 1, %34 ], [ 0, %.loopexit ]
  call void @llvm.lifetime.end.p0(i64 101, ptr nonnull %4) #17
  call void @llvm.lifetime.end.p0(i64 512, ptr nonnull %3) #17
  ret i32 %.029
}